#include <math.h>
#include <stdio.h>
#include <stdlib.h>
#include <string.h>

int main(){
    char a[201];
    char b[201];
    int c=0;
    gets(a);
    for(int i=0;i<201;i++){
        b[i]='\0';
    }
    for(int i=0;i<strlen(a);i++){
        if((a[i]==' ')&&(a[i+1]==' ')){
            b[c]=' ';
        }else{
        b[c]=a[i];
        c++;
        //printf("%d\n",c);
        }
    }
    printf("%s",b);
    return 0;
}


