; ModuleID = 'source-C-CXX/61/3539.c'
source_filename = "source-C-CXX/61/3539.c"
target datalayout = "e-m:e-p270:32:32-p271:32:32-p272:64:64-i64:64-f80:128-n8:16:32:64-S128"
target triple = "x86_64-pc-linux-gnu"

@.str = private unnamed_addr constant [3 x i8] c"%s\00", align 1

; Function Attrs: nounwind sspstrong uwtable
define dso_local i32 @main() local_unnamed_addr #0 {
  %1 = alloca [201 x i8], align 16
  %2 = alloca [201 x i8], align 16
  %3 = getelementptr inbounds [201 x i8], [201 x i8]* %2, i64 0, i64 0
  %4 = getelementptr inbounds [201 x i8], [201 x i8]* %1, i64 0, i64 0
  call void @llvm.lifetime.start.p0i8(i64 201, i8* nonnull %4) #6
  %5 = getelementptr inbounds [201 x i8], [201 x i8]* %2, i64 0, i64 0
  call void @llvm.lifetime.start.p0i8(i64 201, i8* nonnull %5) #6
  %6 = call i32 (i8*, ...) bitcast (i32 (...)* @gets to i32 (i8*, ...)*)(i8* nonnull %4) #6
  call void @llvm.memset.p0i8.i64(i8* noundef nonnull align 16 dereferenceable(201) %3, i8 0, i64 201, i1 false)
  %7 = call i64 @strlen(i8* noundef nonnull %4) #7
  %8 = icmp eq i64 %7, 0
  br i1 %8, label %9, label %11

9:                                                ; preds = %29, %0
  %10 = call i32 (i8*, ...) @printf(i8* nonnull dereferenceable(1) getelementptr inbounds ([3 x i8], [3 x i8]* @.str, i64 0, i64 0), i8* nonnull %5)
  call void @llvm.lifetime.end.p0i8(i64 201, i8* nonnull %5) #6
  call void @llvm.lifetime.end.p0i8(i64 201, i8* nonnull %4) #6
  ret i32 0

11:                                               ; preds = %0, %29
  %12 = phi i64 [ %17, %29 ], [ 0, %0 ]
  %13 = phi i32 [ %30, %29 ], [ 0, %0 ]
  %14 = getelementptr inbounds [201 x i8], [201 x i8]* %1, i64 0, i64 %12
  %15 = load i8, i8* %14, align 1, !tbaa !5
  %16 = icmp eq i8 %15, 32
  %17 = add nuw nsw i64 %12, 1
  br i1 %16, label %18, label %25

18:                                               ; preds = %11
  %19 = getelementptr inbounds [201 x i8], [201 x i8]* %1, i64 0, i64 %17
  %20 = load i8, i8* %19, align 1, !tbaa !5
  %21 = icmp eq i8 %20, 32
  br i1 %21, label %22, label %25

22:                                               ; preds = %18
  %23 = sext i32 %13 to i64
  %24 = getelementptr inbounds [201 x i8], [201 x i8]* %2, i64 0, i64 %23
  store i8 32, i8* %24, align 1, !tbaa !5
  br label %29

25:                                               ; preds = %11, %18
  %26 = sext i32 %13 to i64
  %27 = getelementptr inbounds [201 x i8], [201 x i8]* %2, i64 0, i64 %26
  store i8 %15, i8* %27, align 1, !tbaa !5
  %28 = add nsw i32 %13, 1
  br label %29

29:                                               ; preds = %22, %25
  %30 = phi i32 [ %13, %22 ], [ %28, %25 ]
  %31 = icmp eq i64 %17, %7
  br i1 %31, label %9, label %11, !llvm.loop !8
}

; Function Attrs: argmemonly mustprogress nofree nosync nounwind willreturn
declare void @llvm.lifetime.start.p0i8(i64 immarg, i8* nocapture) #1

declare i32 @gets(...) local_unnamed_addr #2

; Function Attrs: argmemonly mustprogress nofree nosync nounwind willreturn
declare void @llvm.lifetime.end.p0i8(i64 immarg, i8* nocapture) #1

; Function Attrs: argmemonly mustprogress nofree nounwind readonly willreturn
declare i64 @strlen(i8* nocapture) local_unnamed_addr #3

; Function Attrs: nofree nounwind
declare noundef i32 @printf(i8* nocapture noundef readonly, ...) local_unnamed_addr #4

; Function Attrs: argmemonly nofree nounwind willreturn writeonly
declare void @llvm.memset.p0i8.i64(i8* nocapture writeonly, i8, i64, i1 immarg) #5


!llvm.module.flags = !{!0, !1, !2, !3}
!llvm.ident = !{!4}

!0 = !{i32 1, !"wchar_size", i32 4}
!1 = !{i32 7, !"PIC Level", i32 2}
!2 = !{i32 7, !"PIE Level", i32 2}
!3 = !{i32 7, !"uwtable", i32 1}
!4 = !{!"clang version 13.0.0"}
!5 = !{!6, !6, i64 0}
!6 = !{!"omnipotent char", !7, i64 0}
!7 = !{!"Simple C/C++ TBAA"}
!8 = distinct !{!8, !9}
!9 = !{!"llvm.loop.mustprogress"}
